; Function Attrs: mustprogress nounwind uwtable
define noundef range(i32 0, 134217728) i32 @_ZNK3spv10spirvbin_t15typeSizeInWordsEj(ptr nocapture noundef nonnull align 8 dereferenceable(473) %0, i32 noundef %1) local_unnamed_addr #0 align 2 {
  %3 = tail call noundef i32 @_ZNK3spv10spirvbin_t5idPosEj(ptr noundef nonnull align 8 dereferenceable(473) %0, i32 noundef %1)
  %4 = getelementptr inbounds i8, ptr %0, i64 8
  %5 = zext i32 %3 to i64
  %6 = load ptr, ptr %4, align 8
  %7 = getelementptr inbounds i32, ptr %6, i64 %5
  %8 = load i32, ptr %7, align 4
  %9 = and i32 %8, 65535
  %10 = getelementptr inbounds i8, ptr %0, i64 472
  %11 = load i8, ptr %10, align 8
  %12 = trunc i8 %11 to i1
  %13 = add nsw i32 %9, -23
  %switch = icmp ult i32 %13, -2
  %or.cond.not = or i1 %switch, %12
  br i1 %or.cond.not, label %21, label %14

14:                                               ; preds = %2
  %15 = add i32 %3, 2
  %16 = zext i32 %15 to i64
  %17 = getelementptr inbounds i32, ptr %6, i64 %16
  %18 = load i32, ptr %17, align 4
  %19 = add i32 %18, 31
  %20 = lshr i32 %19, 5
  br label %21

21:                                               ; preds = %2, %14
  %.0 = phi i32 [ %20, %14 ], [ 0, %2 ]
  ret i32 %.0
}